target datalayout = "e-m:e-p270:32:32-p271:32:32-p272:64:64-i64:64-i128:128-f80:128-n8:16:32:64-S128"
target triple = "x86_64-pc-linux-gnu"

%"struct.boost::once_flag" = type { i32 }
%"class.boost::detail::shared_count" = type { ptr }
%"struct.boost::detail::thread_data_base" = type <{ ptr, %"class.boost::enable_shared_from_this", %"class.boost::shared_ptr", i64, %"class.boost::mutex", %"class.boost::condition_variable", i8, i8, i8, [5 x i8], ptr, %"class.std::map", ptr, ptr, %"class.std::vector", %"class.std::vector.7", i8, i8, [6 x i8] }>
%"class.boost::enable_shared_from_this" = type { %"class.boost::weak_ptr" }
%"class.boost::weak_ptr" = type { ptr, %"class.boost::detail::weak_count" }
%"class.boost::detail::weak_count" = type { ptr }
%"class.boost::shared_ptr" = type { ptr, %"class.boost::detail::shared_count" }
%"class.boost::mutex" = type { %union.pthread_mutex_t }
%union.pthread_mutex_t = type { %struct.__pthread_mutex_s }
%struct.__pthread_mutex_s = type { i32, i32, i32, i32, i32, i16, i16, %struct.__pthread_internal_list }
%struct.__pthread_internal_list = type { ptr, ptr }
%"class.boost::condition_variable" = type { %union.pthread_mutex_t, %union.pthread_cond_t }
%union.pthread_cond_t = type { %struct.__pthread_cond_s }
%struct.__pthread_cond_s = type { %union.__atomic_wide_counter, %union.__atomic_wide_counter, [2 x i32], [2 x i32], i32, i32, [2 x i32] }
%union.__atomic_wide_counter = type { i64 }
%"class.std::map" = type { %"class.std::_Rb_tree" }
%"class.std::_Rb_tree" = type { %"struct.std::_Rb_tree<const void *, std::pair<const void *const, boost::detail::tss_data_node>, std::_Select1st<std::pair<const void *const, boost::detail::tss_data_node>>, std::less<const void *>>::_Rb_tree_impl" }
%"struct.std::_Rb_tree<const void *, std::pair<const void *const, boost::detail::tss_data_node>, std::_Select1st<std::pair<const void *const, boost::detail::tss_data_node>>, std::less<const void *>>::_Rb_tree_impl" = type { [8 x i8], %"struct.std::_Rb_tree_header" }
%"struct.std::_Rb_tree_header" = type { %"struct.std::_Rb_tree_node_base", i64 }
%"struct.std::_Rb_tree_node_base" = type { i32, ptr, ptr, ptr }
%"class.std::vector" = type { %"struct.std::_Vector_base" }
%"struct.std::_Vector_base" = type { %"struct.std::_Vector_base<std::pair<boost::condition_variable *, boost::mutex *>, std::allocator<std::pair<boost::condition_variable *, boost::mutex *>>>::_Vector_impl" }
%"struct.std::_Vector_base<std::pair<boost::condition_variable *, boost::mutex *>, std::allocator<std::pair<boost::condition_variable *, boost::mutex *>>>::_Vector_impl" = type { %"struct.std::_Vector_base<std::pair<boost::condition_variable *, boost::mutex *>, std::allocator<std::pair<boost::condition_variable *, boost::mutex *>>>::_Vector_impl_data" }
%"struct.std::_Vector_base<std::pair<boost::condition_variable *, boost::mutex *>, std::allocator<std::pair<boost::condition_variable *, boost::mutex *>>>::_Vector_impl_data" = type { ptr, ptr, ptr }
%"class.std::vector.7" = type { %"struct.std::_Vector_base.8" }
%"struct.std::_Vector_base.8" = type { %"struct.std::_Vector_base<boost::shared_ptr<boost::detail::shared_state_base>, std::allocator<boost::shared_ptr<boost::detail::shared_state_base>>>::_Vector_impl" }
%"struct.std::_Vector_base<boost::shared_ptr<boost::detail::shared_state_base>, std::allocator<boost::shared_ptr<boost::detail::shared_state_base>>>::_Vector_impl" = type { %"struct.std::_Vector_base<boost::shared_ptr<boost::detail::shared_state_base>, std::allocator<boost::shared_ptr<boost::detail::shared_state_base>>>::_Vector_impl_data" }
%"struct.std::_Vector_base<boost::shared_ptr<boost::detail::shared_state_base>, std::allocator<boost::shared_ptr<boost::detail::shared_state_base>>>::_Vector_impl_data" = type { ptr, ptr, ptr }

@_ZN5boost6detail12_GLOBAL__N_128current_thread_tls_init_flagE = internal global %"struct.boost::once_flag" zeroinitializer, align 4
@_ZN5boost6detail12_GLOBAL__N_122current_thread_tls_keyE = internal global i32 0, align 4

; Function Attrs: inlinehint mustprogress uwtable
define linkonce_odr hidden void @_ZN5boost6detail6invokeIPFvvEJEEEDTclclsr5boostE7forwardIT_Efp_Espclsr5boostE7forwardIT0_Efp0_EEEOS4_DpOS5_(ptr noundef nonnull align 8 dereferenceable(8) %0) #0 comdat {
  %2 = alloca ptr, align 8
  store ptr %0, ptr %2, align 8, !tbaa !3
  %3 = load ptr, ptr %2, align 8, !tbaa !3
  %4 = call noundef nonnull align 8 dereferenceable(8) ptr @_ZN5boost7forwardIPFvvEEEOT_RNS_11move_detail16remove_referenceIS3_E4typeE(ptr noundef nonnull align 8 dereferenceable(8) %3) #11
  %5 = load ptr, ptr %4, align 8, !tbaa !3
  call void %5()
  ret void
}

; Function Attrs: mustprogress nounwind uwtable
define linkonce_odr hidden noundef ptr @_ZN5boost13thread_detail10decay_copyIPFvvEEENS0_5decayIT_E4typeEOS5_(ptr noundef nonnull align 8 dereferenceable(8) %0) #2 comdat {
  %2 = alloca ptr, align 8
  store ptr %0, ptr %2, align 8, !tbaa !3
  %3 = load ptr, ptr %2, align 8, !tbaa !3
  %4 = call noundef nonnull align 8 dereferenceable(8) ptr @_ZN5boost7forwardIPFvvEEEOT_RNS_11move_detail16remove_referenceIS3_E4typeE(ptr noundef nonnull align 8 dereferenceable(8) %3) #11
  %5 = load ptr, ptr %4, align 8, !tbaa !3
  ret ptr %5
}

; Function Attrs: inlinehint mustprogress nounwind uwtable
define linkonce_odr hidden noundef nonnull align 8 dereferenceable(8) ptr @_ZN5boost7forwardIPFvvEEEOT_RNS_11move_detail16remove_referenceIS3_E4typeE(ptr noundef nonnull align 8 dereferenceable(8) %0) #1 comdat {
  %2 = alloca ptr, align 8
  store ptr %0, ptr %2, align 8, !tbaa !3
  %3 = load ptr, ptr %2, align 8, !tbaa !3
  ret ptr %3
}

; Function Attrs: inlinehint mustprogress uwtable
define linkonce_odr hidden void @_ZN5boost9call_onceIPFvvEJEEEvRNS_9once_flagEOT_DpOT0_(ptr noundef nonnull align 4 dereferenceable(4) %0, ptr noundef nonnull align 8 dereferenceable(8) %1) #0 comdat personality ptr @__gxx_personality_v0 {
  %3 = alloca ptr, align 8
  %4 = alloca ptr, align 8
  %5 = alloca ptr, align 8
  %6 = alloca ptr, align 8
  %7 = alloca i32, align 4
  store ptr %0, ptr %3, align 8, !tbaa !3
  store ptr %1, ptr %4, align 8, !tbaa !3
  %8 = load ptr, ptr %3, align 8, !tbaa !3
  %9 = call noundef zeroext i1 @_ZN5boost13thread_detail17enter_once_regionERNS_9once_flagE(ptr noundef nonnull align 4 dereferenceable(4) %8) #11
  br i1 %9, label %10, label %31

10:                                               ; preds = %2
  call void @llvm.lifetime.start.p0(i64 8, ptr %5) #11
  %11 = load ptr, ptr %4, align 8, !tbaa !3
  %12 = call noundef nonnull align 8 dereferenceable(8) ptr @_ZN5boost7forwardIPFvvEEEOT_RNS_11move_detail16remove_referenceIS3_E4typeE(ptr noundef nonnull align 8 dereferenceable(8) %11) #11
  %13 = invoke noundef ptr @_ZN5boost13thread_detail10decay_copyIPFvvEEENS0_5decayIT_E4typeEOS5_(ptr noundef nonnull align 8 dereferenceable(8) %12)
          to label %14 unwind label %16

14:                                               ; preds = %10
  store ptr %13, ptr %5, align 8, !tbaa !3
  invoke void @_ZN5boost6detail6invokeIPFvvEJEEEDTclclsr5boostE7forwardIT_Efp_Espclsr5boostE7forwardIT0_Efp0_EEEOS4_DpOS5_(ptr noundef nonnull align 8 dereferenceable(8) %5)
          to label %15 unwind label %16

15:                                               ; preds = %14
  call void @llvm.lifetime.end.p0(i64 8, ptr %5) #11
  br label %29

16:                                               ; preds = %14, %10
  %17 = landingpad { ptr, i32 }
          catch ptr null
  %18 = extractvalue { ptr, i32 } %17, 0
  store ptr %18, ptr %6, align 8
  %19 = extractvalue { ptr, i32 } %17, 1
  store i32 %19, ptr %7, align 4
  call void @llvm.lifetime.end.p0(i64 8, ptr %5) #11
  br label %20

20:                                               ; preds = %16
  %21 = load ptr, ptr %6, align 8
  %22 = call ptr @__cxa_begin_catch(ptr %21) #11
  %23 = load ptr, ptr %3, align 8, !tbaa !3
  call void @_ZN5boost13thread_detail20rollback_once_regionERNS_9once_flagE(ptr noundef nonnull align 4 dereferenceable(4) %23) #11
  invoke void @__cxa_rethrow() #25
          to label %40 unwind label %24

24:                                               ; preds = %20
  %25 = landingpad { ptr, i32 }
          cleanup
  %26 = extractvalue { ptr, i32 } %25, 0
  store ptr %26, ptr %6, align 8
  %27 = extractvalue { ptr, i32 } %25, 1
  store i32 %27, ptr %7, align 4
  invoke void @__cxa_end_catch()
          to label %28 unwind label %37

28:                                               ; preds = %24
  br label %32

29:                                               ; preds = %15
  %30 = load ptr, ptr %3, align 8, !tbaa !3
  call void @_ZN5boost13thread_detail18commit_once_regionERNS_9once_flagE(ptr noundef nonnull align 4 dereferenceable(4) %30) #11
  br label %31

31:                                               ; preds = %29, %2
  ret void

32:                                               ; preds = %28
  %33 = load ptr, ptr %6, align 8
  %34 = load i32, ptr %7, align 4
  %35 = insertvalue { ptr, i32 } poison, ptr %33, 0
  %36 = insertvalue { ptr, i32 } %35, i32 %34, 1
  resume { ptr, i32 } %36

37:                                               ; preds = %24
  %38 = landingpad { ptr, i32 }
          catch ptr null
  %39 = extractvalue { ptr, i32 } %38, 0
  call void @__clang_call_terminate(ptr %39) #24
  unreachable

40:                                               ; preds = %20
  unreachable
}

; Function Attrs: noinline noreturn nounwind uwtable
define linkonce_odr hidden void @__clang_call_terminate(ptr noundef %0) #3 comdat {
  %2 = call ptr @__cxa_begin_catch(ptr %0) #11
  call void @_ZSt9terminatev() #24
  unreachable
}

; Function Attrs: mustprogress uwtable
define noundef ptr @_ZN5boost6detail23get_current_thread_dataEv() #5 {
  %1 = alloca ptr, align 8
  call void @llvm.lifetime.start.p0(i64 8, ptr %1) #11
  store ptr @_ZN5boost6detail12_GLOBAL__N_129create_current_thread_tls_keyEv, ptr %1, align 8, !tbaa !3
  call void @_ZN5boost9call_onceIPFvvEJEEEvRNS_9once_flagEOT_DpOT0_(ptr noundef nonnull align 4 dereferenceable(4) @_ZN5boost6detail12_GLOBAL__N_128current_thread_tls_init_flagE, ptr noundef nonnull align 8 dereferenceable(8) %1)
  call void @llvm.lifetime.end.p0(i64 8, ptr %1) #11
  %2 = load i32, ptr @_ZN5boost6detail12_GLOBAL__N_122current_thread_tls_keyE, align 4, !tbaa !7
  %3 = call ptr @pthread_getspecific(i32 noundef %2) #11
  ret ptr %3
}

; Function Attrs: mustprogress nounwind uwtable
define void @_ZN5boost11this_thread20restore_interruptionD2Ev(ptr noundef nonnull align 1 dereferenceable(1) %0) unnamed_addr #2 align 2 personality ptr @__gxx_personality_v0 {
  %2 = alloca ptr, align 8
  store ptr %0, ptr %2, align 8, !tbaa !3
  %3 = invoke noundef ptr @_ZN5boost6detail23get_current_thread_dataEv()
          to label %4 unwind label %11

4:                                                ; preds = %1
  %5 = icmp ne ptr %3, null
  br i1 %5, label %6, label %10

6:                                                ; preds = %4
  %7 = invoke noundef ptr @_ZN5boost6detail23get_current_thread_dataEv()
          to label %8 unwind label %11

8:                                                ; preds = %6
  %9 = getelementptr inbounds nuw %"struct.boost::detail::thread_data_base", ptr %7, i32 0, i32 16
  store i8 0, ptr %9, align 8, !tbaa !90
  br label %10

10:                                               ; preds = %8, %4
  ret void

11:                                               ; preds = %6, %1
  %12 = landingpad { ptr, i32 }
          catch ptr null
  %13 = extractvalue { ptr, i32 } %12, 0
  call void @__clang_call_terminate(ptr %13) #24
  unreachable
}